
C:/projects/riscv-compliance/work/rv32emc/C-XOR.elf:     file format elf32-littleriscv


Disassembly of section .text:

00008000 <_start>:
    8000:	800a                	c.mv	zero,sp
    8002:	0000                	unimp
    8004:	8008                	0x8008
    8006:	0000                	unimp

00008008 <_main_2>:
    8008:	a001                	j	8008 <_main_2>

0000800a <_main_1>:
    800a:	ffff9117          	auipc	sp,0xffff9
    800e:	ff610113          	addi	sp,sp,-10 # 1000 <begin_signature>
    8012:	4481                	li	s1,0
    8014:	4401                	li	s0,0
    8016:	8c25                	xor	s0,s0,s1
    8018:	c022                	sw	s0,0(sp)
    801a:	4601                	li	a2,0
    801c:	4585                	li	a1,1
    801e:	8db1                	xor	a1,a1,a2
    8020:	c22e                	sw	a1,4(sp)
    8022:	4701                	li	a4,0
    8024:	fff00693          	li	a3,-1
    8028:	8eb9                	xor	a3,a3,a4
    802a:	c436                	sw	a3,8(sp)
    802c:	4401                	li	s0,0
    802e:	00008637          	lui	a2,0x8
    8032:	fff60613          	addi	a2,a2,-1 # 7fff <_end+0x6f8f>
    8036:	8e21                	xor	a2,a2,s0
    8038:	c632                	sw	a2,12(sp)
    803a:	4581                	li	a1,0
    803c:	64a1                	lui	s1,0x8
    803e:	8cad                	xor	s1,s1,a1
    8040:	c826                	sw	s1,16(sp)
    8042:	ffff9117          	auipc	sp,0xffff9
    8046:	fd210113          	addi	sp,sp,-46 # 1014 <test_2_res>
    804a:	4685                	li	a3,1
    804c:	4601                	li	a2,0
    804e:	8e35                	xor	a2,a2,a3
    8050:	c032                	sw	a2,0(sp)
    8052:	4585                	li	a1,1
    8054:	4705                	li	a4,1
    8056:	8f2d                	xor	a4,a4,a1
    8058:	c23a                	sw	a4,4(sp)
    805a:	4485                	li	s1,1
    805c:	fff00413          	li	s0,-1
    8060:	8c25                	xor	s0,s0,s1
    8062:	c422                	sw	s0,8(sp)
    8064:	4605                	li	a2,1
    8066:	000085b7          	lui	a1,0x8
    806a:	fff58593          	addi	a1,a1,-1 # 7fff <_end+0x6f8f>
    806e:	8db1                	xor	a1,a1,a2
    8070:	c62e                	sw	a1,12(sp)
    8072:	4705                	li	a4,1
    8074:	66a1                	lui	a3,0x8
    8076:	8eb9                	xor	a3,a3,a4
    8078:	c836                	sw	a3,16(sp)
    807a:	ffff9117          	auipc	sp,0xffff9
    807e:	fae10113          	addi	sp,sp,-82 # 1028 <test_3_res>
    8082:	fff00413          	li	s0,-1
    8086:	4601                	li	a2,0
    8088:	8e21                	xor	a2,a2,s0
    808a:	c032                	sw	a2,0(sp)
    808c:	fff00593          	li	a1,-1
    8090:	4485                	li	s1,1
    8092:	8cad                	xor	s1,s1,a1
    8094:	c226                	sw	s1,4(sp)
    8096:	fff00693          	li	a3,-1
    809a:	fff00613          	li	a2,-1
    809e:	8e35                	xor	a2,a2,a3
    80a0:	c432                	sw	a2,8(sp)
    80a2:	fff00593          	li	a1,-1
    80a6:	00008737          	lui	a4,0x8
    80aa:	fff70713          	addi	a4,a4,-1 # 7fff <_end+0x6f8f>
    80ae:	8f2d                	xor	a4,a4,a1
    80b0:	c63a                	sw	a4,12(sp)
    80b2:	fff00493          	li	s1,-1
    80b6:	6421                	lui	s0,0x8
    80b8:	8c25                	xor	s0,s0,s1
    80ba:	c822                	sw	s0,16(sp)
    80bc:	ffff9117          	auipc	sp,0xffff9
    80c0:	f8010113          	addi	sp,sp,-128 # 103c <test_4_res>
    80c4:	00008637          	lui	a2,0x8
    80c8:	fff60613          	addi	a2,a2,-1 # 7fff <_end+0x6f8f>
    80cc:	4581                	li	a1,0
    80ce:	8db1                	xor	a1,a1,a2
    80d0:	c02e                	sw	a1,0(sp)
    80d2:	00008737          	lui	a4,0x8
    80d6:	fff70713          	addi	a4,a4,-1 # 7fff <_end+0x6f8f>
    80da:	4685                	li	a3,1
    80dc:	8eb9                	xor	a3,a3,a4
    80de:	c236                	sw	a3,4(sp)
    80e0:	00008437          	lui	s0,0x8
    80e4:	fff40413          	addi	s0,s0,-1 # 7fff <_end+0x6f8f>
    80e8:	fff00613          	li	a2,-1
    80ec:	8e21                	xor	a2,a2,s0
    80ee:	c432                	sw	a2,8(sp)
    80f0:	000085b7          	lui	a1,0x8
    80f4:	fff58593          	addi	a1,a1,-1 # 7fff <_end+0x6f8f>
    80f8:	000084b7          	lui	s1,0x8
    80fc:	fff48493          	addi	s1,s1,-1 # 7fff <_end+0x6f8f>
    8100:	8cad                	xor	s1,s1,a1
    8102:	c626                	sw	s1,12(sp)
    8104:	000086b7          	lui	a3,0x8
    8108:	fff68693          	addi	a3,a3,-1 # 7fff <_end+0x6f8f>
    810c:	6621                	lui	a2,0x8
    810e:	8e35                	xor	a2,a2,a3
    8110:	c832                	sw	a2,16(sp)
    8112:	ffff9117          	auipc	sp,0xffff9
    8116:	f3e10113          	addi	sp,sp,-194 # 1050 <test_5_res>
    811a:	65a1                	lui	a1,0x8
    811c:	4701                	li	a4,0
    811e:	8f2d                	xor	a4,a4,a1
    8120:	c03a                	sw	a4,0(sp)
    8122:	64a1                	lui	s1,0x8
    8124:	4405                	li	s0,1
    8126:	8c25                	xor	s0,s0,s1
    8128:	c222                	sw	s0,4(sp)
    812a:	6621                	lui	a2,0x8
    812c:	fff00593          	li	a1,-1
    8130:	8db1                	xor	a1,a1,a2
    8132:	c42e                	sw	a1,8(sp)
    8134:	6721                	lui	a4,0x8
    8136:	000086b7          	lui	a3,0x8
    813a:	fff68693          	addi	a3,a3,-1 # 7fff <_end+0x6f8f>
    813e:	8eb9                	xor	a3,a3,a4
    8140:	c636                	sw	a3,12(sp)
    8142:	6421                	lui	s0,0x8
    8144:	6621                	lui	a2,0x8
    8146:	8e21                	xor	a2,a2,s0
    8148:	c832                	sw	a2,16(sp)
    814a:	0ff0000f          	fence
    814e:	4185                	li	gp,1
    8150:	00000073          	ecall
    8154:	0001                	nop
    8156:	0000                	unimp
    8158:	0000                	unimp
    815a:	0000                	unimp
    815c:	0000                	unimp
    815e:	0000                	unimp
    8160:	0000                	unimp
