
C:/projects/riscv-compliance/work/rv32em/REM.elf:     file format elf32-littleriscv


Disassembly of section .text:

00008000 <_start>:
    8000:	800c                	0x800c
    8002:	0000                	unimp
    8004:	8008                	0x8008
    8006:	0000                	unimp

00008008 <_main_2>:
    8008:	0000006f          	j	8008 <_main_2>

0000800c <_main_1>:
    800c:	ffff9117          	auipc	sp,0xffff9
    8010:	ff410113          	addi	sp,sp,-12 # 1000 <begin_signature>
    8014:	00000213          	li	tp,0
    8018:	00000193          	li	gp,0
    801c:	023261b3          	rem	gp,tp,gp
    8020:	00312023          	sw	gp,0(sp)
    8024:	00000413          	li	s0,0
    8028:	00100213          	li	tp,1
    802c:	02446233          	rem	tp,s0,tp
    8030:	00412223          	sw	tp,4(sp)
    8034:	00000493          	li	s1,0
    8038:	fff00413          	li	s0,-1
    803c:	0284e433          	rem	s0,s1,s0
    8040:	00812423          	sw	s0,8(sp)
    8044:	00000593          	li	a1,0
    8048:	800004b7          	lui	s1,0x80000
    804c:	fff48493          	addi	s1,s1,-1 # 7fffffff <_main_1+0x7fff7ff3>
    8050:	0295e4b3          	rem	s1,a1,s1
    8054:	00912623          	sw	s1,12(sp)
    8058:	00000613          	li	a2,0
    805c:	800005b7          	lui	a1,0x80000
    8060:	02b665b3          	rem	a1,a2,a1
    8064:	00b12823          	sw	a1,16(sp)
    8068:	ffff9117          	auipc	sp,0xffff9
    806c:	fac10113          	addi	sp,sp,-84 # 1014 <test_2_res>
    8070:	00100693          	li	a3,1
    8074:	00000613          	li	a2,0
    8078:	02c6e633          	rem	a2,a3,a2
    807c:	00c12023          	sw	a2,0(sp)
    8080:	00100713          	li	a4,1
    8084:	00100693          	li	a3,1
    8088:	02d766b3          	rem	a3,a4,a3
    808c:	00d12223          	sw	a3,4(sp)
    8090:	00100193          	li	gp,1
    8094:	fff00713          	li	a4,-1
    8098:	02e1e733          	rem	a4,gp,a4
    809c:	00e12423          	sw	a4,8(sp)
    80a0:	00100413          	li	s0,1
    80a4:	800001b7          	lui	gp,0x80000
    80a8:	fff18193          	addi	gp,gp,-1 # 7fffffff <_main_1+0x7fff7ff3>
    80ac:	023461b3          	rem	gp,s0,gp
    80b0:	00312623          	sw	gp,12(sp)
    80b4:	00100493          	li	s1,1
    80b8:	80000237          	lui	tp,0x80000
    80bc:	0244e233          	rem	tp,s1,tp
    80c0:	00412823          	sw	tp,16(sp)
    80c4:	ffff9117          	auipc	sp,0xffff9
    80c8:	f6410113          	addi	sp,sp,-156 # 1028 <test_3_res>
    80cc:	fff00593          	li	a1,-1
    80d0:	00000413          	li	s0,0
    80d4:	0285e433          	rem	s0,a1,s0
    80d8:	00812023          	sw	s0,0(sp)
    80dc:	fff00613          	li	a2,-1
    80e0:	00100493          	li	s1,1
    80e4:	029664b3          	rem	s1,a2,s1
    80e8:	00912223          	sw	s1,4(sp)
    80ec:	fff00693          	li	a3,-1
    80f0:	fff00593          	li	a1,-1
    80f4:	02b6e5b3          	rem	a1,a3,a1
    80f8:	00b12423          	sw	a1,8(sp)
    80fc:	fff00713          	li	a4,-1
    8100:	80000637          	lui	a2,0x80000
    8104:	fff60613          	addi	a2,a2,-1 # 7fffffff <_main_1+0x7fff7ff3>
    8108:	02c76633          	rem	a2,a4,a2
    810c:	00c12623          	sw	a2,12(sp)
    8110:	fff00193          	li	gp,-1
    8114:	800006b7          	lui	a3,0x80000
    8118:	02d1e6b3          	rem	a3,gp,a3
    811c:	00d12823          	sw	a3,16(sp)
    8120:	ffff9117          	auipc	sp,0xffff9
    8124:	f1c10113          	addi	sp,sp,-228 # 103c <test_4_res>
    8128:	80000237          	lui	tp,0x80000
    812c:	fff20213          	addi	tp,tp,-1 # 7fffffff <_main_1+0x7fff7ff3>
    8130:	00000713          	li	a4,0
    8134:	02e26733          	rem	a4,tp,a4
    8138:	00e12023          	sw	a4,0(sp)
    813c:	800004b7          	lui	s1,0x80000
    8140:	fff48493          	addi	s1,s1,-1 # 7fffffff <_main_1+0x7fff7ff3>
    8144:	00100193          	li	gp,1
    8148:	0234e1b3          	rem	gp,s1,gp
    814c:	00312223          	sw	gp,4(sp)
    8150:	800005b7          	lui	a1,0x80000
    8154:	fff58593          	addi	a1,a1,-1 # 7fffffff <_main_1+0x7fff7ff3>
    8158:	fff00213          	li	tp,-1
    815c:	0245e233          	rem	tp,a1,tp
    8160:	00412423          	sw	tp,8(sp)
    8164:	80000637          	lui	a2,0x80000
    8168:	fff60613          	addi	a2,a2,-1 # 7fffffff <_main_1+0x7fff7ff3>
    816c:	80000437          	lui	s0,0x80000
    8170:	fff40413          	addi	s0,s0,-1 # 7fffffff <_main_1+0x7fff7ff3>
    8174:	02866433          	rem	s0,a2,s0
    8178:	00812623          	sw	s0,12(sp)
    817c:	800006b7          	lui	a3,0x80000
    8180:	fff68693          	addi	a3,a3,-1 # 7fffffff <_main_1+0x7fff7ff3>
    8184:	800004b7          	lui	s1,0x80000
    8188:	0296e4b3          	rem	s1,a3,s1
    818c:	00912823          	sw	s1,16(sp)
    8190:	ffff9117          	auipc	sp,0xffff9
    8194:	ec010113          	addi	sp,sp,-320 # 1050 <test_5_res>
    8198:	80000737          	lui	a4,0x80000
    819c:	00000593          	li	a1,0
    81a0:	02b765b3          	rem	a1,a4,a1
    81a4:	00b12023          	sw	a1,0(sp)
    81a8:	800001b7          	lui	gp,0x80000
    81ac:	00100613          	li	a2,1
    81b0:	02c1e633          	rem	a2,gp,a2
    81b4:	00c12223          	sw	a2,4(sp)
    81b8:	80000237          	lui	tp,0x80000
    81bc:	fff00693          	li	a3,-1
    81c0:	02d266b3          	rem	a3,tp,a3
    81c4:	00d12423          	sw	a3,8(sp)
    81c8:	80000437          	lui	s0,0x80000
    81cc:	80000737          	lui	a4,0x80000
    81d0:	fff70713          	addi	a4,a4,-1 # 7fffffff <_main_1+0x7fff7ff3>
    81d4:	02e46733          	rem	a4,s0,a4
    81d8:	00e12623          	sw	a4,12(sp)
    81dc:	800005b7          	lui	a1,0x80000
    81e0:	800001b7          	lui	gp,0x80000
    81e4:	0235e1b3          	rem	gp,a1,gp
    81e8:	00312823          	sw	gp,16(sp)
    81ec:	0ff0000f          	fence
    81f0:	00100193          	li	gp,1
    81f4:	00000073          	ecall
    81f8:	00000013          	nop
    81fc:	c0001073          	unimp
    8200:	0000                	unimp
    8202:	0000                	unimp
